target datalayout = "e-m:e-p270:32:32-p271:32:32-p272:64:64-i64:64-i128:128-f80:128-n8:16:32:64-S128"
target triple = "x86_64-pc-linux-gnu"

%struct.reassembly_table = type { ptr, ptr, ptr, ptr, ptr }
%struct.reassembly_table_functions = type { ptr, ptr, ptr, ptr, ptr, ptr }

@.str.260 = private unnamed_addr constant [31 x i8] c"B.A.T.M.A.N. Advanced Protocol\00", align 1
@.str.261 = private unnamed_addr constant [7 x i8] c"BATADV\00", align 1
@.str.262 = private unnamed_addr constant [7 x i8] c"batadv\00", align 1
@proto_batadv_plugin = internal global i32 0, align 4
@batman_handle = internal global ptr null, align 8
@.str.263 = private unnamed_addr constant [20 x i8] c"batmanadv.ethertype\00", align 1
@.str.264 = private unnamed_addr constant [10 x i8] c"Ethertype\00", align 1
@.str.265 = private unnamed_addr constant [48 x i8] c"Ethertype used to indicate B.A.T.M.A.N. packet.\00", align 1
@batadv_ethertype = internal global i32 17157, align 4
@msg_reassembly_table = internal global %struct.reassembly_table zeroinitializer, align 8
@addresses_reassembly_table_functions = external constant %struct.reassembly_table_functions, align 8
@.str.266 = private unnamed_addr constant [7 x i8] c"batman\00", align 1
@batadv_tap = internal global i32 0, align 4
@.str.267 = private unnamed_addr constant [14 x i8] c"batman_follow\00", align 1
@batadv_follow_tap = internal global i32 0, align 4

; Function Attrs: null_pointer_is_valid sspstrong uwtable
define hidden void @proto_register_batadv() #0 {
  %1 = alloca ptr, align 8
  %2 = alloca ptr, align 8
  call void @llvm.lifetime.start.p0(i64 8, ptr %1) #6
  call void @llvm.lifetime.start.p0(i64 8, ptr %2) #6
  %3 = call i32 @proto_register_protocol(ptr noundef @.str.260, ptr noundef @.str.261, ptr noundef @.str.262)
  store i32 %3, ptr @proto_batadv_plugin, align 4
  %4 = load i32, ptr @proto_batadv_plugin, align 4
  %5 = call ptr @register_dissector(ptr noundef @.str.262, ptr noundef @dissect_batadv_plugin, i32 noundef %4)
  store ptr %5, ptr @batman_handle, align 8
  %6 = load i32, ptr @proto_batadv_plugin, align 4
  %7 = call ptr @prefs_register_protocol(i32 noundef %6, ptr noundef @proto_reg_handoff_batadv)
  store ptr %7, ptr %1, align 8
  %8 = load ptr, ptr %1, align 8
  call void @prefs_register_uint_preference(ptr noundef %8, ptr noundef @.str.263, ptr noundef @.str.264, ptr noundef @.str.265, i32 noundef 16, ptr noundef @batadv_ethertype)
  call void @proto_register_subtree_array(ptr noundef @proto_register_batadv.ett, i32 noundef 31)
  %9 = load i32, ptr @proto_batadv_plugin, align 4
  call void @proto_register_field_array(i32 noundef %9, ptr noundef @proto_register_batadv.hf, i32 noundef 172)
  %10 = load i32, ptr @proto_batadv_plugin, align 4
  %11 = call ptr @expert_register_protocol(i32 noundef %10)
  store ptr %11, ptr %2, align 8
  %12 = load ptr, ptr %2, align 8
  call void @expert_register_field_array(ptr noundef %12, ptr noundef @proto_register_batadv.ei, i32 noundef 3)
  call void @reassembly_table_register(ptr noundef @msg_reassembly_table, ptr noundef @addresses_reassembly_table_functions)
  %13 = call i32 @register_tap(ptr noundef @.str.266)
  store i32 %13, ptr @batadv_tap, align 4
  %14 = call i32 @register_tap(ptr noundef @.str.267)
  store i32 %14, ptr @batadv_follow_tap, align 4
  call void @llvm.lifetime.end.p0(i64 8, ptr %2) #6
  call void @llvm.lifetime.end.p0(i64 8, ptr %1) #6
  ret void
}