; Function Attrs: null_pointer_is_valid sspstrong uwtable
define hidden void @proto_register_batadv() local_unnamed_addr #0 {
  %1 = tail call i32 @proto_register_protocol(ptr noundef nonnull @.str.260, ptr noundef nonnull @.str.261, ptr noundef nonnull @.str.262)
  store i32 %1, ptr @proto_batadv_plugin, align 4
  %2 = tail call ptr @register_dissector(ptr noundef nonnull @.str.262, ptr noundef nonnull @dissect_batadv_plugin, i32 noundef %1)
  store ptr %2, ptr @batman_handle, align 8
  %3 = load i32, ptr @proto_batadv_plugin, align 4
  %4 = tail call ptr @prefs_register_protocol(i32 noundef %3, ptr noundef nonnull @proto_reg_handoff_batadv)
  tail call void @prefs_register_uint_preference(ptr noundef %4, ptr noundef nonnull @.str.263, ptr noundef nonnull @.str.264, ptr noundef nonnull @.str.265, i32 noundef 16, ptr noundef nonnull @batadv_ethertype)
  tail call void @proto_register_subtree_array(ptr noundef nonnull @proto_register_batadv.ett, i32 noundef 31)
  %5 = load i32, ptr @proto_batadv_plugin, align 4
  tail call void @proto_register_field_array(i32 noundef %5, ptr noundef nonnull @proto_register_batadv.hf, i32 noundef 172)
  %6 = load i32, ptr @proto_batadv_plugin, align 4
  %7 = tail call ptr @expert_register_protocol(i32 noundef %6)
  tail call void @expert_register_field_array(ptr noundef %7, ptr noundef nonnull @proto_register_batadv.ei, i32 noundef 3)
  tail call void @reassembly_table_register(ptr noundef nonnull @msg_reassembly_table, ptr noundef nonnull @addresses_reassembly_table_functions)
  %8 = tail call i32 @register_tap(ptr noundef nonnull @.str.266)
  store i32 %8, ptr @batadv_tap, align 4
  %9 = tail call i32 @register_tap(ptr noundef nonnull @.str.267)
  store i32 %9, ptr @batadv_follow_tap, align 4
  ret void
}